target datalayout = "e-m:e-p270:32:32-p271:32:32-p272:64:64-i64:64-i128:128-f80:128-n8:16:32:64-S128"
target triple = "x86_64-pc-linux-gnu"

%struct.SDL_BlitInfo = type { ptr, ptr, i32, i32, i32, i32, ptr, ptr, i32, i32, i32, i32, ptr, ptr, ptr, ptr, ptr, ptr, i32, i32, i8, i8, i8, i8 }

; Function Attrs: nounwind uwtable
define internal void @SDL_Blit_RGBA8888_XRGB8888_Scale(ptr noundef %0) #0 {
  %2 = alloca ptr, align 8
  %3 = alloca i32, align 4
  %4 = alloca i64, align 8
  %5 = alloca i64, align 8
  %6 = alloca i64, align 8
  %7 = alloca i64, align 8
  %8 = alloca i64, align 8
  %9 = alloca i64, align 8
  %10 = alloca ptr, align 8
  %11 = alloca ptr, align 8
  %12 = alloca i32, align 4
  store ptr %0, ptr %2, align 8
  call void @llvm.lifetime.start.p0(i64 4, ptr %3) #2
  call void @llvm.lifetime.start.p0(i64 8, ptr %4) #2
  call void @llvm.lifetime.start.p0(i64 8, ptr %5) #2
  call void @llvm.lifetime.start.p0(i64 8, ptr %6) #2
  call void @llvm.lifetime.start.p0(i64 8, ptr %7) #2
  call void @llvm.lifetime.start.p0(i64 8, ptr %8) #2
  call void @llvm.lifetime.start.p0(i64 8, ptr %9) #2
  %13 = load ptr, ptr %2, align 8
  %14 = getelementptr inbounds nuw %struct.SDL_BlitInfo, ptr %13, i32 0, i32 3
  %15 = load i32, ptr %14, align 4
  %16 = sext i32 %15 to i64
  %17 = shl i64 %16, 16
  %18 = load ptr, ptr %2, align 8
  %19 = getelementptr inbounds nuw %struct.SDL_BlitInfo, ptr %18, i32 0, i32 9
  %20 = load i32, ptr %19, align 4
  %21 = sext i32 %20 to i64
  %22 = udiv i64 %17, %21
  store i64 %22, ptr %8, align 8
  %23 = load ptr, ptr %2, align 8
  %24 = getelementptr inbounds nuw %struct.SDL_BlitInfo, ptr %23, i32 0, i32 2
  %25 = load i32, ptr %24, align 8
  %26 = sext i32 %25 to i64
  %27 = shl i64 %26, 16
  %28 = load ptr, ptr %2, align 8
  %29 = getelementptr inbounds nuw %struct.SDL_BlitInfo, ptr %28, i32 0, i32 8
  %30 = load i32, ptr %29, align 8
  %31 = sext i32 %30 to i64
  %32 = udiv i64 %27, %31
  store i64 %32, ptr %9, align 8
  %33 = load i64, ptr %8, align 8
  %34 = udiv i64 %33, 2
  store i64 %34, ptr %6, align 8
  br label %35

35:                                               ; preds = %83, %1
  %36 = load ptr, ptr %2, align 8
  %37 = getelementptr inbounds nuw %struct.SDL_BlitInfo, ptr %36, i32 0, i32 9
  %38 = load i32, ptr %37, align 4
  %39 = add nsw i32 %38, -1
  store i32 %39, ptr %37, align 4
  %40 = icmp ne i32 %38, 0
  br i1 %40, label %41, label %95

41:                                               ; preds = %35
  call void @llvm.lifetime.start.p0(i64 8, ptr %10) #2
  store ptr null, ptr %10, align 8
  call void @llvm.lifetime.start.p0(i64 8, ptr %11) #2
  %42 = load ptr, ptr %2, align 8
  %43 = getelementptr inbounds nuw %struct.SDL_BlitInfo, ptr %42, i32 0, i32 7
  %44 = load ptr, ptr %43, align 8
  store ptr %44, ptr %11, align 8
  call void @llvm.lifetime.start.p0(i64 4, ptr %12) #2
  %45 = load ptr, ptr %2, align 8
  %46 = getelementptr inbounds nuw %struct.SDL_BlitInfo, ptr %45, i32 0, i32 8
  %47 = load i32, ptr %46, align 8
  store i32 %47, ptr %12, align 4
  %48 = load i64, ptr %9, align 8
  %49 = udiv i64 %48, 2
  store i64 %49, ptr %7, align 8
  %50 = load i64, ptr %6, align 8
  %51 = lshr i64 %50, 16
  store i64 %51, ptr %4, align 8
  br label %52

52:                                               ; preds = %56, %41
  %53 = load i32, ptr %12, align 4
  %54 = add nsw i32 %53, -1
  store i32 %54, ptr %12, align 4
  %55 = icmp ne i32 %53, 0
  br i1 %55, label %56, label %83

56:                                               ; preds = %52
  %57 = load i64, ptr %7, align 8
  %58 = lshr i64 %57, 16
  store i64 %58, ptr %5, align 8
  %59 = load ptr, ptr %2, align 8
  %60 = getelementptr inbounds nuw %struct.SDL_BlitInfo, ptr %59, i32 0, i32 1
  %61 = load ptr, ptr %60, align 8
  %62 = load i64, ptr %4, align 8
  %63 = load ptr, ptr %2, align 8
  %64 = getelementptr inbounds nuw %struct.SDL_BlitInfo, ptr %63, i32 0, i32 4
  %65 = load i32, ptr %64, align 8
  %66 = sext i32 %65 to i64
  %67 = mul i64 %62, %66
  %68 = getelementptr inbounds nuw i8, ptr %61, i64 %67
  %69 = load i64, ptr %5, align 8
  %70 = mul i64 %69, 4
  %71 = getelementptr inbounds nuw i8, ptr %68, i64 %70
  store ptr %71, ptr %10, align 8
  %72 = load ptr, ptr %10, align 8
  %73 = load i32, ptr %72, align 4
  store i32 %73, ptr %3, align 4
  %74 = load i32, ptr %3, align 4
  %75 = lshr i32 %74, 8
  store i32 %75, ptr %3, align 4
  %76 = load i32, ptr %3, align 4
  %77 = load ptr, ptr %11, align 8
  store i32 %76, ptr %77, align 4
  %78 = load i64, ptr %9, align 8
  %79 = load i64, ptr %7, align 8
  %80 = add i64 %79, %78
  store i64 %80, ptr %7, align 8
  %81 = load ptr, ptr %11, align 8
  %82 = getelementptr inbounds nuw i32, ptr %81, i32 1
  store ptr %82, ptr %11, align 8
  br label %52, !llvm.loop !172

83:                                               ; preds = %52
  %84 = load i64, ptr %8, align 8
  %85 = load i64, ptr %6, align 8
  %86 = add i64 %85, %84
  store i64 %86, ptr %6, align 8
  %87 = load ptr, ptr %2, align 8
  %88 = getelementptr inbounds nuw %struct.SDL_BlitInfo, ptr %87, i32 0, i32 10
  %89 = load i32, ptr %88, align 8
  %90 = load ptr, ptr %2, align 8
  %91 = getelementptr inbounds nuw %struct.SDL_BlitInfo, ptr %90, i32 0, i32 7
  %92 = load ptr, ptr %91, align 8
  %93 = sext i32 %89 to i64
  %94 = getelementptr inbounds i8, ptr %92, i64 %93
  store ptr %94, ptr %91, align 8
  call void @llvm.lifetime.end.p0(i64 4, ptr %12) #2
  call void @llvm.lifetime.end.p0(i64 8, ptr %11) #2
  call void @llvm.lifetime.end.p0(i64 8, ptr %10) #2
  br label %35, !llvm.loop !173

95:                                               ; preds = %35
  call void @llvm.lifetime.end.p0(i64 8, ptr %9) #2
  call void @llvm.lifetime.end.p0(i64 8, ptr %8) #2
  call void @llvm.lifetime.end.p0(i64 8, ptr %7) #2
  call void @llvm.lifetime.end.p0(i64 8, ptr %6) #2
  call void @llvm.lifetime.end.p0(i64 8, ptr %5) #2
  call void @llvm.lifetime.end.p0(i64 8, ptr %4) #2
  call void @llvm.lifetime.end.p0(i64 4, ptr %3) #2
  ret void
}