; Function Attrs: nofree norecurse nosync nounwind memory(readwrite, inaccessiblemem: none) uwtable
define internal void @SDL_Blit_RGBA8888_XRGB8888_Scale(ptr noundef captures(none) %0) #0 {
  %2 = getelementptr inbounds nuw i8, ptr %0, i64 20
  %3 = load i32, ptr %2, align 4
  %4 = sext i32 %3 to i64
  %5 = shl nsw i64 %4, 16
  %6 = getelementptr inbounds nuw i8, ptr %0, i64 52
  %7 = load i32, ptr %6, align 4
  %8 = sext i32 %7 to i64
  %9 = udiv i64 %5, %8
  %10 = getelementptr inbounds nuw i8, ptr %0, i64 16
  %11 = load i32, ptr %10, align 8
  %12 = sext i32 %11 to i64
  %13 = shl nsw i64 %12, 16
  %14 = getelementptr inbounds nuw i8, ptr %0, i64 48
  %15 = load i32, ptr %14, align 8
  %16 = sext i32 %15 to i64
  %17 = udiv i64 %13, %16
  %18 = add nsw i32 %7, -1
  store i32 %18, ptr %6, align 4
  %.not34 = icmp eq i32 %7, 0
  br i1 %.not34, label %._crit_edge38, label %.lr.ph37

.lr.ph37:                                         ; preds = %1
  %19 = getelementptr inbounds nuw i8, ptr %0, i64 40
  %20 = lshr i64 %17, 1
  %21 = getelementptr inbounds nuw i8, ptr %0, i64 8
  %22 = getelementptr inbounds nuw i8, ptr %0, i64 24
  %23 = getelementptr inbounds nuw i8, ptr %0, i64 56
  %24 = icmp eq i32 %15, 0
  br i1 %24, label %.lr.ph37.split.us, label %.lr.ph37.split.preheader

.lr.ph37.split.preheader:                         ; preds = %.lr.ph37
  %25 = lshr i64 %9, 1
  %.pre = load ptr, ptr %19, align 8
  br label %.lr.ph37.split

.lr.ph37.split.us:                                ; preds = %.lr.ph37
  %26 = load i32, ptr %23, align 8
  %27 = sext i32 %26 to i64
  %.promoted = load ptr, ptr %19, align 8
  %28 = zext i32 %7 to i64
  %29 = mul nsw i64 %28, %27
  %scevgep = getelementptr i8, ptr %.promoted, i64 %29
  store ptr %scevgep, ptr %19, align 8
  store i32 -1, ptr %6, align 4
  br label %._crit_edge38

.lr.ph37.split:                                   ; preds = %.lr.ph37.split.preheader, %._crit_edge
  %30 = phi i32 [ %53, %._crit_edge ], [ %18, %.lr.ph37.split.preheader ]
  %31 = phi ptr [ %52, %._crit_edge ], [ %.pre, %.lr.ph37.split.preheader ]
  %.02735 = phi i64 [ %49, %._crit_edge ], [ %25, %.lr.ph37.split.preheader ]
  %32 = load i32, ptr %14, align 8
  %33 = lshr i64 %.02735, 16
  %.not2930 = icmp eq i32 %32, 0
  br i1 %.not2930, label %._crit_edge, label %.lr.ph

.lr.ph:                                           ; preds = %.lr.ph37.split, %.lr.ph
  %.033 = phi i32 [ %34, %.lr.ph ], [ %32, %.lr.ph37.split ]
  %.02632 = phi ptr [ %46, %.lr.ph ], [ %31, %.lr.ph37.split ]
  %.02831 = phi i64 [ %45, %.lr.ph ], [ %20, %.lr.ph37.split ]
  %34 = add nsw i32 %.033, -1
  %35 = load ptr, ptr %21, align 8
  %36 = load i32, ptr %22, align 8
  %37 = sext i32 %36 to i64
  %38 = mul i64 %33, %37
  %39 = getelementptr inbounds nuw i8, ptr %35, i64 %38
  %40 = lshr i64 %.02831, 14
  %41 = and i64 %40, 1125899906842620
  %42 = getelementptr inbounds nuw i8, ptr %39, i64 %41
  %43 = load i32, ptr %42, align 4
  %44 = lshr i32 %43, 8
  store i32 %44, ptr %.02632, align 4
  %45 = add i64 %.02831, %17
  %46 = getelementptr inbounds nuw i8, ptr %.02632, i64 4
  %.not29 = icmp eq i32 %34, 0
  br i1 %.not29, label %._crit_edge.loopexit, label %.lr.ph, !llvm.loop !173

._crit_edge.loopexit:                             ; preds = %.lr.ph
  %.pre42 = load ptr, ptr %19, align 8
  %.pre43 = load i32, ptr %6, align 4
  br label %._crit_edge

._crit_edge:                                      ; preds = %._crit_edge.loopexit, %.lr.ph37.split
  %47 = phi i32 [ %.pre43, %._crit_edge.loopexit ], [ %30, %.lr.ph37.split ]
  %48 = phi ptr [ %.pre42, %._crit_edge.loopexit ], [ %31, %.lr.ph37.split ]
  %49 = add i64 %.02735, %9
  %50 = load i32, ptr %23, align 8
  %51 = sext i32 %50 to i64
  %52 = getelementptr inbounds i8, ptr %48, i64 %51
  store ptr %52, ptr %19, align 8
  %53 = add nsw i32 %47, -1
  store i32 %53, ptr %6, align 4
  %.not = icmp eq i32 %47, 0
  br i1 %.not, label %._crit_edge38, label %.lr.ph37.split, !llvm.loop !174

._crit_edge38:                                    ; preds = %._crit_edge, %.lr.ph37.split.us, %1
  ret void
}